(dp1
(Vtaobaomm
S'retry'
tp2
ccopy_reg
_reconstructor
p3
(cpyspider.libs.counter
TimebaseAverageWindowCounter
p4
c__builtin__
object
p5
NtRp6
(dp7
S'_first_data_time'
p8
F1505297697.5899999
sS'window_size'
p9
F417.18519444432525
sS'times'
p10
ccollections
deque
p11
((lp12
F1505297697.5899999
aF1505298099.9330001
aF1505298416.52
aF1505298577.717
aF1505298740.322
aF1505298997.425
aF1505299144.1099999
aF1505299289.5
aF1505299440.0569999
aF1505299646.312
aF1505299790.3139999
aF1505299997.5209999
aF1505300173.141
aF1505300320.2079999
aF1505300466.372
aF1505300613.049
aF1505300761.9449999
aF1505300914.2650001
aF1505301091.7260001
aF1505301403.4560001
aF1505301731.3239999
aF1505302034.4760001
aF1505302341.7079999
aF1505302665.4230001
aF1505303001.925
aF1505303309.813
aF1505303614.122
aF1505303917.372
aF1505304218.4690001
aF1505304520.3239999
aF1505304824.911
aF1505305126.1459999
aF1505305427.9449999
aF1505305729.178
aF1505306030.375
aF1505306332.198
aF1505306636.1300001
aF1505306939.4849999
aF1505307266.6889999
aF1505307568.0179999
aF1505307869.585
aF1505308170.9219999
aF1505308472.7950001
aF1505308775.2750001
aF1505309076.2650001
aF1505309381.0039999
aF1505309682.5480001
aF1505309983.9990001
aF1505310285.5239999
aF1505310591.97
aF1505310893.75
aF1505311195.2550001
aF1505311495.947
aF1505311797.8080001
aF1505312099.2550001
aF1505312409.2390001
aF1505312714.816
aF1505313016.066
aF1505313332.961
aF1505313640.1500001
aF1505313952.48
aF1505314260.901
aF1505314567.3099999
aF1505314872.6370001
aF1505315175.178
aF1505315487.303
aF1505315791.497
aF1505316140.392
aF1505316441.7809999
aF1505316748.829
aF1505317050.6760001
aF1505317351.951
aF1505317653.2690001
aF1505317967.427
aF1505318272.5840001
aF1505318577.2969999
aF1505318880.6960001
aF1505319184.1849999
aF1505319485.516
aF1505319787.0090001
aF1505320088.3
aF1505320389.204
aF1505320690.168
aF1505320991.79
aF1505321293.2420001
aF1505321594.994
aF1505321899.5420001
aF1505322200.8469999
aF1505322503.2609999
aF1505322804.5409999
aF1505323105.957
aF1505323407.658
aF1505323711.0139999
aF1505324012.664
aF1505324313.8959999
aF1505324615.7379999
aF1505327029.362
aF1505327332.4990001
aF1505327933.3889999
aF1505328234.582
aF1505328540.8299999
aF1505328839.2850001
aF1505329443.2590001
aF1505356890.925
aI600
tRp13
sS'window_interval'
p14
I144
sS'values'
p15
g11
((lp16
I17
aI22
aI13
aI20
aI13
aI15
aI34
aI26
aI23
aI7
aI10
aI18
aI25
aI20
aI26
aI12
aI8
aI24
aI39
aI9
aI28
aI3
aI22
aI29
aI12
aI5
aI5
aI4
aI4
aI4
aI6
aI3
aI4
aI3
aI3
aI4
aI4
aI24
aI4
aI4
aI4
aI4
aI4
aI4
aI7
aI3
aI4
aI4
aI4
aI9
aI4
aI4
aI3
aI4
aI7
aI12
aI5
aI10
aI17
aI7
aI17
aI6
aI11
aI6
aI11
aI3
aI27
aI4
aI5
aI9
aI4
aI4
aI11
aI12
aI4
aI9
aI4
aI5
aI4
aI4
aI3
aI3
aI3
aI4
aI4
aI6
aI4
aI4
aI4
aI3
aI4
aI5
aI5
aI3
aI4
aI2
aI3
aI1
aI1
aI1
aI1
aI2
aI1
aI9
aI600
tRp17
sS'cache_value'
p18
I0
sS'max_window_size'
p19
I600
sS'cache_start'
p20
Nsbs(VJsw
S'success'
p21
tp22
g3
(g4
g5
NtRp23
(dp24
g8
F1505292502.013
sg9
F453.26559027698306
sg10
g11
((lp25
F1505292502.013
aI600
tRp26
sg14
I144
sg15
g11
((lp27
I1
aI600
tRp28
sg18
I0
sg19
I600
sg20
Nsbs(Vdemo
g21
tp29
g3
(g4
g5
NtRp30
(dp31
g8
F1505292804.283
sg9
F451.16649305489329
sg10
g11
((lp32
F1505292804.283
aF1505297914.02
aI600
tRp33
sg14
I144
sg15
g11
((lp34
I2
aI3
aI600
tRp35
sg18
I0
sg19
I600
sg20
Nsbs(Vdemo
S'retry'
p36
tp37
g3
(g4
g5
NtRp38
(dp39
g8
F1505292804.974
sg9
F451.16169444388811
sg10
g11
((lp40
F1505292804.974
aF1505296435.8469999
aI600
tRp41
sg14
I144
sg15
g11
((lp42
I2
aI1
aI600
tRp43
sg18
I0
sg19
I600
sg20
Nsbs(S'taobaomm'
S'pending'
tp44
g3
(g4
g5
NtRp45
(dp46
g8
F1505297613.8989999
sg9
F417.76638194421929
sg10
g11
((lp47
F1505297613.8989999
aF1505297757.9460001
aF1505297994.3599999
aF1505298138.4360001
aF1505298396.6199999
aF1505298952.9719999
aF1505299358.2539999
aF1505299690.237
aF1505299842.0969999
aF1505300002.6329999
aF1505300271.4030001
aF1505300469.142
aF1505315178.276
aF1505356876.701
aI600
tRp48
sg14
I144
sg15
g11
((lp49
I616
aI95
aI245
aI158
aI369
aI595
aI93
aI94
aI133
aI224
aI142
aI500
aI30
aI26
aI600
tRp50
sg18
I1
sg19
I600
sg20
F1505357769.448
sbs(S'demo'
S'pending'
p51
tp52
g3
(g4
g5
NtRp53
(dp54
g8
F1505292803.9189999
sg9
F451.16902083324061
sg10
g11
((lp55
F1505292803.9189999
aF1505297913.7179999
aI600
tRp56
sg14
I144
sg15
g11
((lp57
I3
aI3
aI600
tRp58
sg18
I0
sg19
I600
sg20
Nsbs(VJsw
g36
tp59
g3
(g4
g5
NtRp60
(dp61
g8
F1505292503.737
sg9
F453.2536180549198
sg10
g11
((lp62
F1505292503.737
aI600
tRp63
sg14
I144
sg15
g11
((lp64
I2
aI600
tRp65
sg18
I0
sg19
I600
sg20
Nsbs(Vtaobaomm
S'failed'
tp66
g3
(g4
g5
NtRp67
(dp68
g8
F1505324615.345
sg9
F230.25634027686385
sg10
g11
((lp69
F1505324615.345
aF1505324916.7149999
aF1505325218.1500001
aF1505325519.6889999
aF1505325822.1199999
aF1505326123.717
aF1505326425.8310001
aF1505326727.322
aF1505327029.2750001
aF1505327330.503
aF1505327631.6989999
aF1505327933.2780001
aF1505328234.7780001
aF1505328537.8499999
aF1505328839.381
aF1505329141.3499999
aF1505329442.9059999
aF1505329746.652
aF1505330048.6500001
aF1505330350.6340001
aI600
tRp70
sg14
I144
sg15
g11
((lp71
I2
aI4
aI4
aI4
aI4
aI5
aI4
aI4
aI1
aI3
aI3
aI3
aI2
aI5
aI2
aI3
aI5
aI4
aI4
aI4
aI600
tRp72
sg18
I0
sg19
I600
sg20
Nsbs(S'Jsw'
g51
tp73
g3
(g4
g5
NtRp74
(dp75
g8
F1505292501.687
sg9
F453.26785416569976
sg10
g11
((lp76
F1505292501.687
aI600
tRp77
sg14
I144
sg15
g11
((lp78
I2
aI600
tRp79
sg18
I0
sg19
I600
sg20
Nsbs(Vtaobaomm
S'success'
tp80
g3
(g4
g5
NtRp81
(dp82
g8
F1505297614.171
sg9
F417.76449305481378
sg10
g11
((lp83
F1505297614.171
aF1505298077.826
aF1505298237.299
aF1505298389.7360001
aF1505298533.9070001
aF1505298679.0710001
aF1505298824.0480001
aF1505298971.5480001
aF1505299117.721
aF1505299262.098
aF1505299407.3929999
aF1505299551.473
aF1505299700.2460001
aF1505299845.2520001
aF1505299989.348
aF1505300134.743
aF1505300281.072
aF1505300425.414
aF1505300569.586
aF1505300714.089
aF1505300859.4389999
aF1505301006.71
aF1505302036.5599999
aF1505302337.8110001
aF1505302666.1389999
aF1505306034.451
aF1505306641.8369999
aF1505306939.392
aF1505315177.8870001
aF1505315489.095
aF1505315790.631
aF1505356876.454
aI600
tRp84
sg14
I144
sg15
g11
((lp85
I54
aI41
aI3
aI97
aI126
aI130
aI19
aI78
aI116
aI108
aI120
aI138
aI135
aI126
aI107
aI120
aI113
aI57
aI126
aI135
aI125
aI54
aI2
aI4
aI7
aI1
aI4
aI5
aI1
aI1
aI26
aI9
aI600
tRp86
sg18
I4
sg19
I600
sg20
F1505357768.8329999
sbs.