(dp1
(VLyrics
S'retry'
tp2
ccopy_reg
_reconstructor
p3
(cpyspider.libs.counter
TimebaseAverageWindowCounter
p4
c__builtin__
object
p5
NtRp6
(dp7
S'_first_data_time'
p8
F1508320614.908
sS'window_size'
p9
F526.88937499953636
sS'times'
p10
ccollections
deque
p11
((lp12
F1508320614.908
aF1508321265.95
aF1508321425.596
aF1508321594.671
aF1508321760.175
aF1508321904.964
aF1508322049.4619999
aF1508322194.279
aF1508322345.4590001
aF1508322514.7090001
aF1508322662.8410001
aF1508322807.2160001
aF1508322955.8929999
aF1508323141.0380001
aF1508323316.1830001
aF1508323560.174
aF1508323816.4820001
aF1508323966.55
aF1508324140.7820001
aF1508324301.325
aF1508324477.9460001
aF1508324668.0420001
aF1508324930.2130001
aF1508325084.6719999
aF1508325318.4790001
aF1508325487.5150001
aF1508325634.0209999
aF1508325780.615
aF1508325929.1900001
aF1508326079.7379999
aF1508326512.7780001
aF1508326816.2060001
aF1508327121.428
aF1508327425.348
aF1508327730.9330001
aF1508328032.836
aF1508328334.789
aF1508328637.5669999
aF1508328941.3789999
aF1508329245.796
aF1508329547.5599999
aF1508329852.7309999
aF1508330156.5050001
aF1508330458.523
aF1508330763.9100001
aF1508331067.8429999
aF1508331370.645
aI600
tRp13
sS'window_interval'
p14
I144
sS'values'
p15
g11
((lp16
I16
aI9
aI19
aI12
aI13
aI20
aI15
aI15
aI9
aI18
aI31
aI30
aI6
aI6
aI3
aI4
aI9
aI6
aI4
aI6
aI3
aI2
aI7
aI13
aI9
aI15
aI8
aI9
aI6
aI11
aI4
aI3
aI5
aI4
aI5
aI3
aI4
aI3
aI5
aI4
aI3
aI5
aI4
aI3
aI5
aI5
aI3
aI600
tRp17
sS'cache_value'
p18
I0
sS'max_window_size'
p19
I600
sS'cache_start'
p20
Nsbs(VLyrics
S'failed'
tp21
g3
(g4
g5
NtRp22
(dp23
g8
F1508345879.5550001
sg9
F351.44043749901982
sg10
g11
((lp24
F1508345879.5550001
aF1508346221.7449999
aF1508346540.092
aF1508346921.408
aF1508347223.066
aF1508347524.7579999
aF1508347829.1159999
aF1508348133.3710001
aF1508348440.3740001
aF1508348744.398
aF1508349046.855
aF1508349351.602
aF1508349655.533
aF1508349957.5139999
aF1508350259.536
aF1508350563.849
aF1508350867.806
aF1508351169.582
aF1508351475.059
aF1508351778.7550001
aF1508352083.8640001
aF1508352387.444
aF1508352691.319
aF1508352993.9449999
aF1508353298.198
aF1508353600.135
aF1508353902.3629999
aF1508354204.6010001
aF1508354509.039
aF1508354811.0220001
aF1508355115.8759999
aF1508355419.5079999
aF1508355723.7579999
aF1508356027.8069999
aF1508356333.7809999
aI600
tRp25
sg14
I144
sg15
g11
((lp26
I3
aI3
aI3
aI3
aI3
aI4
aI4
aI4
aI6
aI4
aI3
aI5
aI4
aI3
aI3
aI5
aI4
aI3
aI5
aI4
aI5
aI4
aI4
aI4
aI4
aI3
aI3
aI3
aI5
aI4
aI4
aI4
aI5
aI4
aI2
aI600
tRp27
sg18
I0
sg19
I600
sg20
Nsbs(S'Lyrics'
S'pending'
tp28
g3
(g4
g5
NtRp29
(dp30
g8
F1508320524.8659999
sg9
F527.51466666658723
sg10
g11
((lp31
F1508320524.8659999
aF1508321227.6930001
aF1508322517.227
aF1508322976.082
aF1508323120.2820001
aF1508325253.332
aF1508356335.1029999
aI600
tRp32
sg14
I144
sg15
g11
((lp33
I651
aI4
aI176
aI968
aI52
aI358
aI1
aI600
tRp34
sg18
I0
sg19
I600
sg20
Nsbs(VLyrics
S'success'
tp35
g3
(g4
g5
NtRp36
(dp37
g8
F1508320525.158
sg9
F527.51263888842527
sg10
g11
((lp38
F1508320525.158
aF1508320672.142
aF1508321227.5339999
aF1508321373.724
aF1508321518.0179999
aF1508321667.342
aF1508321813.0079999
aF1508321958.2030001
aF1508322104.756
aF1508322250.3889999
aF1508322394.559
aF1508322545.602
aF1508322689.707
aF1508322835.493
aF1508323129.9059999
aF1508323275.5179999
aF1508323420.1989999
aF1508323566.0880001
aF1508323710.3199999
aF1508323856.579
aF1508324001.4319999
aF1508324147.1500001
aF1508324291.375
aF1508324437.4909999
aF1508324583.1010001
aF1508324728.0220001
aF1508324873.6359999
aF1508325018.789
aF1508325165.7980001
aF1508325310.2349999
aF1508325454.6849999
aF1508325599.9330001
aF1508325743.971
aF1508325889.28
aF1508326034.9630001
aF1508356335.4389999
aI600
tRp39
sg14
I144
sg15
g11
((lp40
I31
aI28
aI61
aI59
aI57
aI67
aI54
aI56
aI59
aI56
aI58
aI51
aI40
aI44
aI67
aI72
aI70
aI70
aI70
aI64
aI67
aI71
aI65
aI71
aI70
aI74
aI69
aI63
aI43
aI63
aI59
aI63
aI64
aI67
aI32
aI1
aI600
tRp41
sg18
I0
sg19
I600
sg20
Nsbs.