(dp1
(VJsw
S'success'
p2
tp3
ccopy_reg
_reconstructor
p4
(cpyspider.libs.counter
TotalCounter
p5
c__builtin__
object
p6
NtRp7
(dp8
S'cnt'
p9
I1
sbs(Vdemo
g2
tp10
g4
(g5
g6
NtRp11
(dp12
g9
I1
sbs(Vtaobaomm
p13
S'pending'
tp14
g4
(g5
g6
NtRp15
(dp16
g9
I1104
sbs(S'demo'
S'pending'
p17
tp18
g4
(g5
g6
NtRp19
(dp20
g9
I1
sbs(g13
S'success'
tp21
g4
(g5
g6
NtRp22
(dp23
g9
I2196
sbs(Vtaobaomm
S'failed'
tp24
g4
(g5
g6
NtRp25
(dp26
g9
I70
sbs(S'Jsw'
g17
tp27
g4
(g5
g6
NtRp28
(dp29
g9
I1
sbs.